; Function Attrs: mustprogress uwtable
define noundef zeroext i1 @_ZNK32pxrInternal_v0_24__pxrReserved__7SdfPath24IsAbsoluteRootOrPrimPathEv(ptr nocapture noundef nonnull readonly align 4 dereferenceable(8) %0) local_unnamed_addr #0 align 2 personality ptr @__gxx_personality_v0 {
  %2 = getelementptr inbounds nuw i8, ptr %0, i64 4
  %3 = load i32, ptr %2, align 4
  %.not = icmp eq i32 %3, 0
  br i1 %.not, label %4, label %24

4:                                                ; preds = %1
  %5 = load i32, ptr %0, align 4
  %.not3 = icmp eq i32 %5, 0
  br i1 %.not3, label %24, label %6

6:                                                ; preds = %4
  %7 = and i32 %5, 255
  %8 = lshr i32 %5, 8
  %9 = zext nneg i32 %7 to i64
  %10 = getelementptr inbounds [257 x ptr], ptr @_ZN32pxrInternal_v0_24__pxrReserved__8Sdf_PoolINS_15Sdf_PathPrimTagELj24ELj8ELj16384EE13_regionStartsE, i64 0, i64 %9
  %11 = load ptr, ptr %10, align 8
  %12 = mul nuw nsw i32 %8, 24
  %13 = zext nneg i32 %12 to i64
  %14 = getelementptr inbounds i8, ptr %11, i64 %13
  %15 = getelementptr inbounds nuw i8, ptr %14, i64 14
  %16 = load i8, ptr %15, align 2
  %17 = icmp eq i8 %16, 1
  br i1 %17, label %24, label %18

18:                                               ; preds = %6
  %19 = tail call noundef nonnull align 4 dereferenceable(8) ptr @_ZN32pxrInternal_v0_24__pxrReserved__7SdfPath16AbsoluteRootPathEv()
  %.0.copyload.i.i = load i64, ptr %0, align 4
  %.0.copyload.i2.i = load i64, ptr %19, align 4
  %20 = icmp eq i64 %.0.copyload.i.i, %.0.copyload.i2.i
  br i1 %20, label %24, label %21

21:                                               ; preds = %18
  %22 = tail call noundef nonnull align 4 dereferenceable(8) ptr @_ZN32pxrInternal_v0_24__pxrReserved__7SdfPath21ReflexiveRelativePathEv()
  %.0.copyload.i.i1 = load i64, ptr %0, align 4
  %.0.copyload.i2.i2 = load i64, ptr %22, align 4
  %23 = icmp eq i64 %.0.copyload.i.i1, %.0.copyload.i2.i2
  br label %24

24:                                               ; preds = %6, %18, %21, %4, %1
  %25 = phi i1 [ false, %4 ], [ false, %1 ], [ true, %18 ], [ true, %6 ], [ %23, %21 ]
  ret i1 %25
}